; Function Attrs: mustprogress uwtable
define void @_Z10dd_scatterPK12gmx_domdec_tiPKvPv(ptr nocapture noundef readonly %0, i32 noundef %1, ptr noundef %2, ptr noundef %3) local_unnamed_addr #0 {
  %5 = load i32, ptr %0, align 8
  %6 = icmp sgt i32 %5, 1
  br i1 %6, label %7, label %14

7:                                                ; preds = %4
  %8 = load ptr, ptr @TMPI_BYTE, align 8
  %9 = getelementptr inbounds i8, ptr %0, i64 44
  %10 = load i32, ptr %9, align 4
  %11 = getelementptr inbounds i8, ptr %0, i64 8
  %12 = load ptr, ptr %11, align 8
  %13 = tail call noundef i32 @_Z12tMPI_ScatterPKviP14tmpi_datatype_PviS2_iP10tmpi_comm_(ptr noundef %2, i32 noundef %1, ptr noundef %8, ptr noundef %3, i32 noundef %1, ptr noundef %8, i32 noundef %10, ptr noundef %12)
  br label %17

14:                                               ; preds = %4
  %.not = icmp eq ptr %3, %2
  br i1 %.not, label %17, label %15

15:                                               ; preds = %14
  %16 = sext i32 %1 to i64
  tail call void @llvm.memcpy.p0.p0.i64(ptr align 1 %3, ptr align 1 %2, i64 %16, i1 false)
  br label %17

17:                                               ; preds = %14, %15, %7
  ret void
}